target datalayout = "e-m:e-p270:32:32-p271:32:32-p272:64:64-i64:64-i128:128-f80:128-n8:16:32:64-S128"
target triple = "x86_64-pc-linux-gnu"

%struct._VAConfigAttrib = type { i32, i32 }
%struct.AVCodecContext = type { ptr, i32, i32, ptr, i32, i32, ptr, ptr, ptr, i64, i32, i32, ptr, i32, %struct.AVRational, %struct.AVRational, %struct.AVRational, i32, i32, i32, i32, i32, %struct.AVRational, i32, i32, i32, i32, i32, i32, i32, i32, i32, i32, i32, ptr, ptr, i32, float, float, float, float, float, float, float, float, float, i32, i32, i32, i32, i32, i32, i32, i32, i32, i32, i32, i32, ptr, ptr, ptr, i32, i32, i32, i32, i32, i32, i32, i32, i32, i32, %struct.AVChannelLayout, i32, i32, i32, i32, i32, i32, i32, i32, ptr, i32, i32, i32, float, float, i32, i32, i32, i32, i32, ptr, i64, i64, float, float, i32, i32, ptr, ptr, i32, i32, i32, i32, i32, ptr, ptr, ptr, ptr, i32, i32, [8 x i64], i32, i32, i32, i32, i32, i32, i32, ptr, ptr, i32, i32, i32, i32, i32, i32, i32, i32, i32, i32, ptr, ptr, i32, i32, ptr, ptr, ptr, ptr, i32, i32, i64, i32, i32, i64, ptr, i64, ptr, i32, ptr, i32 }
%struct.AVRational = type { i32, i32 }
%struct.AVChannelLayout = type { i32, i32, %union.anon.1, ptr }
%union.anon.1 = type { i64 }
%struct.VAAPIEncodeContext = type { %struct.FFHWBaseEncodeContext, ptr, i32, i32, i32, i32, i32, i32, ptr, ptr, i32, i32, i32, i32, i32, i32, [4 x %struct._VAConfigAttrib], i32, i32, i32, ptr, ptr, [4 x i32], [4 x ptr], [4 x i64], i32, %struct._VAEncMiscParameterRateControl, %struct._VAEncMiscParameterHRD, %struct._VAEncMiscParameterFrameRate, %struct._VAEncMiscParameterBufferMaxFrameSize, %struct._VAEncMiscParameterBufferQualityLevel, ptr, ptr, i32, i32, i32, i32, i32, i32, [20 x i32], [22 x i32], [21 x i32], [23 x i32], i32, i32, ptr, i32, i32 }
%struct.FFHWBaseEncodeContext = type { ptr, ptr, ptr, i32, i32, i32, i32, i32, i32, ptr, ptr, ptr, ptr, ptr, ptr, ptr, ptr, [2 x ptr], i32, i64, i64, i64, i64, i64, i64, i64, [112 x i64], i32, i32, i32, i32, i32, i32, i32, i32, i32, i32, i32, i32, i32, i32, i32, i32, ptr, i32, ptr, i32, ptr }
%struct._VAEncMiscParameterRateControl = type { i32, i32, i32, i32, i32, i32, %union.anon.2, i32, i32, i32, i32, [4 x i32] }
%union.anon.2 = type { %struct.anon }
%struct.anon = type { i32 }
%struct._VAEncMiscParameterHRD = type { i32, i32, [4 x i32] }
%struct._VAEncMiscParameterFrameRate = type { i32, %union.anon.3, [4 x i32] }
%union.anon.3 = type { %struct.anon.4 }
%struct.anon.4 = type { i32 }
%struct._VAEncMiscParameterBufferMaxFrameSize = type { i32, i32, [4 x i32] }
%struct._VAEncMiscParameterBufferQualityLevel = type { i32, [4 x i32] }
%struct.VAAPIEncodeAV1Context = type { %struct.VAAPIEncodeContext, %struct.AV1RawOBU, %struct.AV1RawOBU, [4 x %struct.AV1RawOBU], i32, ptr, %struct.CodedBitstreamFragment, %union._VAConfigAttribValEncAV1, %union._VAConfigAttribValEncAV1Ext1, %union._VAConfigAttribValEncAV1Ext2, [1024 x i8], i64, [1024 x i8], i64, i8, i8, i32, i32, i32, i32, i32, i32, [64 x i8], [64 x i8], i32, i32, i32, i32, i32, i32, i32, i32, i32, i32, i32, i32, i32, i32, i32, i32, i32 }
%struct.AV1RawOBU = type { %struct.AV1RawOBUHeader, i64, %union.anon.5 }
%struct.AV1RawOBUHeader = type { i8, i8, i8, i8, i8, i8, i8, i8 }
%union.anon.5 = type { %struct.AV1RawMetadata }
%struct.AV1RawMetadata = type { i64, %union.anon.6 }
%union.anon.6 = type { %struct.AV1RawMetadataITUTT35, [2800 x i8] }
%struct.AV1RawMetadataITUTT35 = type { i8, i8, ptr, ptr, i64 }
%struct.CodedBitstreamFragment = type { ptr, i64, i64, ptr, i32, i32, ptr }
%union._VAConfigAttribValEncAV1 = type { %struct.anon.7 }
%struct.anon.7 = type { i32 }
%union._VAConfigAttribValEncAV1Ext1 = type { %struct.anon.8 }
%struct.anon.8 = type { i32 }
%union._VAConfigAttribValEncAV1Ext2 = type { %struct.anon.9 }
%struct.anon.9 = type { i32 }

; Function Attrs: nounwind uwtable
define internal i32 @vaapi_encode_av1_write_sequence_header(ptr noundef %0, ptr noundef %1, ptr noundef %2) #3 {
  %4 = alloca ptr, align 8
  %5 = alloca ptr, align 8
  %6 = alloca ptr, align 8
  %7 = alloca ptr, align 8
  store ptr %0, ptr %4, align 8, !tbaa !4
  store ptr %1, ptr %5, align 8, !tbaa !339
  store ptr %2, ptr %6, align 8, !tbaa !340
  call void @llvm.lifetime.start.p0(i64 8, ptr %7) #12
  %8 = load ptr, ptr %4, align 8, !tbaa !4
  %9 = getelementptr inbounds nuw %struct.AVCodecContext, ptr %8, i32 0, i32 6
  %10 = load ptr, ptr %9, align 8, !tbaa !9
  store ptr %10, ptr %7, align 8, !tbaa !31
  %11 = load ptr, ptr %5, align 8, !tbaa !339
  %12 = load ptr, ptr %7, align 8, !tbaa !31
  %13 = getelementptr inbounds nuw %struct.VAAPIEncodeAV1Context, ptr %12, i32 0, i32 10
  call void @llvm.memcpy.p0.p0.i64(ptr align 1 %11, ptr align 4 %13, i64 1024, i1 false)
  %14 = load ptr, ptr %7, align 8, !tbaa !31
  %15 = getelementptr inbounds nuw %struct.VAAPIEncodeAV1Context, ptr %14, i32 0, i32 11
  %16 = load i64, ptr %15, align 8, !tbaa !283
  %17 = load ptr, ptr %6, align 8, !tbaa !340
  store i64 %16, ptr %17, align 8, !tbaa !342
  call void @llvm.lifetime.end.p0(i64 8, ptr %7) #12
  ret i32 0
}