; Function Attrs: mustprogress nofree norecurse nosync nounwind willreturn memory(readwrite, inaccessiblemem: none) uwtable
define internal noundef i32 @vaapi_encode_av1_write_sequence_header(ptr noundef readonly captures(none) %0, ptr noundef writeonly captures(none) initializes((0, 1024)) %1, ptr noundef writeonly captures(none) initializes((0, 8)) %2) #5 {
  %4 = getelementptr inbounds nuw i8, ptr %0, i64 32
  %5 = load ptr, ptr %4, align 8, !tbaa !4
  %6 = getelementptr inbounds nuw i8, ptr %5, i64 19188
  tail call void @llvm.memcpy.p0.p0.i64(ptr noundef nonnull align 1 dereferenceable(1024) %1, ptr noundef nonnull align 4 dereferenceable(1024) %6, i64 1024, i1 false)
  %7 = getelementptr inbounds nuw i8, ptr %5, i64 20216
  %8 = load i64, ptr %7, align 8, !tbaa !243
  store i64 %8, ptr %2, align 8, !tbaa !166
  ret i32 0
}